target datalayout = "e-m:e-p270:32:32-p271:32:32-p272:64:64-i64:64-i128:128-f80:128-n8:16:32:64-S128"
target triple = "x86_64-pc-linux-gnu"

%struct.GdkRGBA = type { double, double, double, double }

@fp_g_object_unref = internal global ptr null, align 8
@fp_g_object_get = internal global ptr null, align 8
@fp_gtk_widget_get_style_context = internal global ptr null, align 8
@fp_gtk_style_context_restore = internal global ptr null, align 8
@gtk3_version_3_20 = internal global i32 0, align 4
@fp_gtk_settings_get_for_screen = internal global ptr null, align 8
@fp_gtk_widget_get_screen = internal global ptr null, align 8
@fp_gtk_css_provider_get_named = internal global ptr null, align 8
@fp_gtk_fixed_new = internal global ptr null, align 8
@fp_gtk_window_new = internal global ptr null, align 8
@fp_gtk_container_add = internal global ptr null, align 8
@fp_gtk_widget_realize = internal global ptr null, align 8
@gtk3_window = internal global ptr null, align 8
@gtk3_widget = internal global ptr null, align 8
@gtk3_fixed = internal global ptr null, align 8
@.str.292 = private unnamed_addr constant [8 x i8] c"tooltip\00", align 1
@.str.344 = private unnamed_addr constant [15 x i8] c"gtk-theme-name\00", align 1
@gtk3_css = internal global ptr null, align 8

; Function Attrs: nounwind uwtable
define internal void @disposeOrRestoreContext(ptr noundef %0) #0 {
  %2 = alloca ptr, align 8
  store ptr %0, ptr %2, align 8
  %3 = load i32, ptr @gtk3_version_3_20, align 4
  %4 = icmp ne i32 %3, 0
  br i1 %4, label %8, label %5

5:                                                ; preds = %1
  %6 = load ptr, ptr @fp_gtk_style_context_restore, align 8
  %7 = load ptr, ptr %2, align 8
  call void %6(ptr noundef %7)
  br label %11

8:                                                ; preds = %1
  %9 = load ptr, ptr @fp_g_object_unref, align 8
  %10 = load ptr, ptr %2, align 8
  call void %9(ptr noundef %10)
  br label %11

11:                                               ; preds = %8, %5
  ret void
}

; Function Attrs: nounwind uwtable
define internal zeroext i8 @recode_color(double noundef %0) #0 {
  %2 = alloca double, align 8
  %3 = alloca i16, align 2
  store double %0, ptr %2, align 8
  %4 = load double, ptr %2, align 8
  %5 = fmul double %4, 6.553500e+04
  %6 = fptoui double %5 to i16
  store i16 %6, ptr %3, align 2
  %7 = load i16, ptr %3, align 2
  %8 = zext i16 %7 to i32
  %9 = icmp sgt i32 %8, 65535
  br i1 %9, label %10, label %11

10:                                               ; preds = %1
  store i16 -1, ptr %3, align 2
  br label %11

11:                                               ; preds = %10, %1
  %12 = load i16, ptr %3, align 2
  %13 = zext i16 %12 to i32
  %14 = ashr i32 %13, 8
  %15 = trunc i32 %14 to i8
  ret i8 %15
}

; Function Attrs: nounwind uwtable
define internal void @init_containers() #0 {
  %1 = alloca ptr, align 8
  %2 = alloca ptr, align 8
  %3 = load ptr, ptr @gtk3_window, align 8
  %4 = icmp eq ptr %3, null
  br i1 %4, label %5, label %27

5:                                                ; preds = %0
  %6 = load ptr, ptr @fp_gtk_window_new, align 8
  %7 = call ptr %6(i32 noundef 0)
  store ptr %7, ptr @gtk3_window, align 8
  %8 = load ptr, ptr @fp_gtk_fixed_new, align 8
  %9 = call ptr (...) %8()
  store ptr %9, ptr @gtk3_fixed, align 8
  %10 = load ptr, ptr @fp_gtk_container_add, align 8
  %11 = load ptr, ptr @gtk3_window, align 8
  %12 = load ptr, ptr @gtk3_fixed, align 8
  call void %10(ptr noundef %11, ptr noundef %12)
  %13 = load ptr, ptr @fp_gtk_widget_realize, align 8
  %14 = load ptr, ptr @gtk3_window, align 8
  call void %13(ptr noundef %14)
  %15 = load ptr, ptr @fp_gtk_widget_realize, align 8
  %16 = load ptr, ptr @gtk3_fixed, align 8
  call void %15(ptr noundef %16)
  %17 = load ptr, ptr @fp_gtk_settings_get_for_screen, align 8
  %18 = load ptr, ptr @fp_gtk_widget_get_screen, align 8
  %19 = load ptr, ptr @gtk3_window, align 8
  %20 = call ptr %18(ptr noundef %19)
  %21 = call ptr %17(ptr noundef %20)
  store ptr %21, ptr %1, align 8
  store ptr null, ptr %2, align 8
  %22 = load ptr, ptr @fp_g_object_get, align 8
  %23 = load ptr, ptr %1, align 8
  call void (ptr, ptr, ...) %22(ptr noundef %23, ptr noundef @.str.344, ptr noundef %2, ptr noundef null)
  %24 = load ptr, ptr @fp_gtk_css_provider_get_named, align 8
  %25 = load ptr, ptr %2, align 8
  %26 = call ptr %24(ptr noundef %25, ptr noundef null)
  store ptr %26, ptr @gtk3_css, align 8
  br label %27

27:                                               ; preds = %5, %0
  ret void
}

; Function Attrs: nounwind uwtable
define internal i32 @gtk3_get_state_flags(i32 noundef %0) #0 {
  %2 = alloca i32, align 4
  %3 = alloca i32, align 4
  store i32 %0, ptr %3, align 4
  %4 = load i32, ptr %3, align 4
  switch i32 %4, label %12 [
    i32 0, label %5
    i32 1, label %6
    i32 2, label %7
    i32 3, label %8
    i32 4, label %9
    i32 5, label %10
    i32 6, label %11
  ]

5:                                                ; preds = %1
  store i32 0, ptr %2, align 4
  br label %13

6:                                                ; preds = %1
  store i32 1, ptr %2, align 4
  br label %13

7:                                                ; preds = %1
  store i32 2, ptr %2, align 4
  br label %13

8:                                                ; preds = %1
  store i32 4, ptr %2, align 4
  br label %13

9:                                                ; preds = %1
  store i32 8, ptr %2, align 4
  br label %13

10:                                               ; preds = %1
  store i32 16, ptr %2, align 4
  br label %13

11:                                               ; preds = %1
  store i32 32, ptr %2, align 4
  br label %13

12:                                               ; preds = %1
  store i32 0, ptr %2, align 4
  br label %13

13:                                               ; preds = %12, %11, %10, %9, %8, %7, %6, %5
  %14 = load i32, ptr %2, align 4
  ret i32 %14
}

; Function Attrs: nounwind uwtable
define internal i32 @gtk3_get_color_for_state(ptr noundef %0, i32 noundef %1, i32 noundef %2, i32 noundef %3) #0 {
  %5 = alloca ptr, align 8
  %6 = alloca i32, align 4
  %7 = alloca i32, align 4
  %8 = alloca i32, align 4
  %9 = alloca i32, align 4
  %10 = alloca i32, align 4
  %11 = alloca ptr, align 8
  %12 = alloca %struct.GdkRGBA, align 8
  %13 = alloca %struct.GdkRGBA, align 8
  store ptr %0, ptr %5, align 8
  store i32 %1, ptr %6, align 4
  store i32 %2, ptr %7, align 4
  store i32 %3, ptr %8, align 4
  store i32 0, ptr %9, align 4
  %14 = load i32, ptr %7, align 4
  %15 = call i32 @gtk3_get_state_flags(i32 noundef %14)
  store i32 %15, ptr %10, align 4
  call void @init_containers()
  %16 = load i32, ptr @gtk3_version_3_20, align 4
  %17 = icmp ne i32 %16, 0
  br i1 %17, label %18, label %56

18:                                               ; preds = %4
  %19 = load i32, ptr %6, align 4
  %20 = icmp eq i32 %19, 52
  br i1 %20, label %30, label %21

21:                                               ; preds = %18
  %22 = load i32, ptr %6, align 4
  %23 = icmp eq i32 %22, 34
  br i1 %23, label %30, label %24

24:                                               ; preds = %21
  %25 = load i32, ptr %6, align 4
  %26 = icmp eq i32 %25, 43
  br i1 %26, label %30, label %27

27:                                               ; preds = %24
  %28 = load i32, ptr %6, align 4
  %29 = icmp eq i32 %28, 10
  br i1 %29, label %30, label %44

30:                                               ; preds = %27, %24, %21, %18
  %31 = load i32, ptr %7, align 4
  %32 = icmp eq i32 %31, 3
  br i1 %32, label %33, label %36

33:                                               ; preds = %30
  %34 = load i32, ptr %8, align 4
  %35 = icmp eq i32 %34, 3
  br i1 %35, label %42, label %36

36:                                               ; preds = %33, %30
  %37 = load i32, ptr %7, align 4
  %38 = icmp eq i32 %37, 4
  br i1 %38, label %39, label %43

39:                                               ; preds = %36
  %40 = load i32, ptr %8, align 4
  %41 = icmp eq i32 %40, 2
  br i1 %41, label %42, label %43

42:                                               ; preds = %39, %33
  store i32 51, ptr %6, align 4
  br label %43

43:                                               ; preds = %42, %39, %36
  br label %55

44:                                               ; preds = %27
  %45 = load i32, ptr %6, align 4
  %46 = icmp eq i32 %45, 29
  br i1 %46, label %47, label %54

47:                                               ; preds = %44
  %48 = load i32, ptr %7, align 4
  %49 = icmp eq i32 %48, 4
  br i1 %49, label %50, label %54

50:                                               ; preds = %47
  %51 = load i32, ptr %8, align 4
  %52 = icmp eq i32 %51, 0
  br i1 %52, label %53, label %54

53:                                               ; preds = %50
  store i32 28, ptr %6, align 4
  br label %54

54:                                               ; preds = %53, %50, %47, %44
  br label %55

55:                                               ; preds = %54, %43
  br label %56

56:                                               ; preds = %55, %4
  store ptr null, ptr %11, align 8
  %57 = load i32, ptr %6, align 4
  %58 = icmp eq i32 %57, 59
  br i1 %58, label %59, label %62

59:                                               ; preds = %56
  %60 = load i32, ptr %6, align 4
  %61 = call ptr @get_style(i32 noundef %60, ptr noundef @.str.292)
  store ptr %61, ptr %11, align 8
  br label %68

62:                                               ; preds = %56
  %63 = load i32, ptr %6, align 4
  %64 = call ptr @gtk3_get_widget(i32 noundef %63)
  store ptr %64, ptr @gtk3_widget, align 8
  %65 = load ptr, ptr @fp_gtk_widget_get_style_context, align 8
  %66 = load ptr, ptr @gtk3_widget, align 8
  %67 = call ptr %65(ptr noundef %66)
  store ptr %67, ptr %11, align 8
  br label %68

68:                                               ; preds = %62, %59
  %69 = load i32, ptr %6, align 4
  %70 = icmp eq i32 %69, 2
  br i1 %70, label %74, label %71

71:                                               ; preds = %68
  %72 = load i32, ptr %6, align 4
  %73 = icmp eq i32 %72, 38
  br i1 %73, label %74, label %77

74:                                               ; preds = %71, %68
  %75 = load i32, ptr %10, align 4
  %76 = and i32 %75, 44
  store i32 %76, ptr %10, align 4
  br label %77

77:                                               ; preds = %74, %71
  %78 = load ptr, ptr %11, align 8
  %79 = load i32, ptr %10, align 4
  %80 = load i32, ptr %8, align 4
  call void @gtk3_get_color_for_flags(ptr dead_on_unwind writable sret(%struct.GdkRGBA) align 8 %12, ptr noundef %78, i32 noundef %79, i32 noundef %80)
  %81 = getelementptr inbounds %struct.GdkRGBA, ptr %12, i32 0, i32 3
  %82 = load double, ptr %81, align 8
  %83 = call zeroext i8 @recode_color(double noundef %82)
  %84 = zext i8 %83 to i32
  %85 = icmp eq i32 %84, 0
  br i1 %85, label %86, label %90

86:                                               ; preds = %77
  %87 = load ptr, ptr @fp_gtk_widget_get_style_context, align 8
  %88 = call ptr @gtk3_get_widget(i32 noundef 23)
  %89 = call ptr %87(ptr noundef %88)
  call void @gtk3_get_color_for_flags(ptr dead_on_unwind writable sret(%struct.GdkRGBA) align 8 %13, ptr noundef %89, i32 noundef 0, i32 noundef 1)
  call void @llvm.memcpy.p0.p0.i64(ptr align 8 %12, ptr align 8 %13, i64 32, i1 false)
  br label %90

90:                                               ; preds = %86, %77
  %91 = getelementptr inbounds %struct.GdkRGBA, ptr %12, i32 0, i32 3
  %92 = load double, ptr %91, align 8
  %93 = call zeroext i8 @recode_color(double noundef %92)
  %94 = zext i8 %93 to i32
  %95 = shl i32 %94, 24
  %96 = getelementptr inbounds %struct.GdkRGBA, ptr %12, i32 0, i32 0
  %97 = load double, ptr %96, align 8
  %98 = call zeroext i8 @recode_color(double noundef %97)
  %99 = zext i8 %98 to i32
  %100 = shl i32 %99, 16
  %101 = or i32 %95, %100
  %102 = getelementptr inbounds %struct.GdkRGBA, ptr %12, i32 0, i32 1
  %103 = load double, ptr %102, align 8
  %104 = call zeroext i8 @recode_color(double noundef %103)
  %105 = zext i8 %104 to i32
  %106 = shl i32 %105, 8
  %107 = or i32 %101, %106
  %108 = getelementptr inbounds %struct.GdkRGBA, ptr %12, i32 0, i32 2
  %109 = load double, ptr %108, align 8
  %110 = call zeroext i8 @recode_color(double noundef %109)
  %111 = zext i8 %110 to i32
  %112 = or i32 %107, %111
  store i32 %112, ptr %9, align 4
  %113 = load i32, ptr %6, align 4
  %114 = icmp eq i32 %113, 59
  br i1 %114, label %115, label %117

115:                                              ; preds = %90
  %116 = load ptr, ptr %11, align 8
  call void @disposeOrRestoreContext(ptr noundef %116)
  br label %117

117:                                              ; preds = %115, %90
  %118 = load i32, ptr %9, align 4
  ret i32 %118
}