; Function Attrs: nounwind uwtable
define internal i32 @gtk3_get_color_for_state(ptr nocapture readnone %0, i32 noundef %1, i32 noundef %2, i32 noundef %3) #0 {
  %5 = alloca ptr, align 8
  %6 = alloca %struct.GdkRGBA, align 8
  %7 = alloca %struct.GdkRGBA, align 8
  %switch.tableidx = add i32 %2, -1
  %8 = icmp ult i32 %switch.tableidx, 6
  br i1 %8, label %switch.lookup, label %gtk3_get_state_flags.exit

switch.lookup:                                    ; preds = %4
  %9 = zext nneg i32 %switch.tableidx to i64
  %switch.gep = getelementptr inbounds [6 x i32], ptr @switch.table.gtk3_get_color_for_state, i64 0, i64 %9
  %switch.load = load i32, ptr %switch.gep, align 4
  br label %gtk3_get_state_flags.exit

gtk3_get_state_flags.exit:                        ; preds = %switch.lookup, %4
  %.0.i = phi i32 [ 0, %4 ], [ %switch.load, %switch.lookup ]
  call void @llvm.lifetime.start.p0(i64 8, ptr nonnull %5)
  %10 = load ptr, ptr @gtk3_window, align 8
  %11 = icmp eq ptr %10, null
  br i1 %11, label %12, label %init_containers.exit

12:                                               ; preds = %gtk3_get_state_flags.exit
  %13 = load ptr, ptr @fp_gtk_window_new, align 8
  %14 = tail call ptr %13(i32 noundef 0) #19
  store ptr %14, ptr @gtk3_window, align 8
  %15 = load ptr, ptr @fp_gtk_fixed_new, align 8
  %16 = tail call ptr (...) %15() #19
  store ptr %16, ptr @gtk3_fixed, align 8
  %17 = load ptr, ptr @fp_gtk_container_add, align 8
  %18 = load ptr, ptr @gtk3_window, align 8
  tail call void %17(ptr noundef %18, ptr noundef %16) #19
  %19 = load ptr, ptr @fp_gtk_widget_realize, align 8
  %20 = load ptr, ptr @gtk3_window, align 8
  tail call void %19(ptr noundef %20) #19
  %21 = load ptr, ptr @fp_gtk_widget_realize, align 8
  %22 = load ptr, ptr @gtk3_fixed, align 8
  tail call void %21(ptr noundef %22) #19
  %23 = load ptr, ptr @fp_gtk_settings_get_for_screen, align 8
  %24 = load ptr, ptr @fp_gtk_widget_get_screen, align 8
  %25 = load ptr, ptr @gtk3_window, align 8
  %26 = tail call ptr %24(ptr noundef %25) #19
  %27 = tail call ptr %23(ptr noundef %26) #19
  store ptr null, ptr %5, align 8
  %28 = load ptr, ptr @fp_g_object_get, align 8
  call void (ptr, ptr, ...) %28(ptr noundef %27, ptr noundef nonnull @.str.344, ptr noundef nonnull %5, ptr noundef null) #19
  %29 = load ptr, ptr @fp_gtk_css_provider_get_named, align 8
  %30 = load ptr, ptr %5, align 8
  %31 = call ptr %29(ptr noundef %30, ptr noundef null) #19
  store ptr %31, ptr @gtk3_css, align 8
  br label %init_containers.exit

init_containers.exit:                             ; preds = %gtk3_get_state_flags.exit, %12
  call void @llvm.lifetime.end.p0(i64 8, ptr nonnull %5)
  %.b = load i1, ptr @gtk3_version_3_20, align 4
  br i1 %.b, label %32, label %43

32:                                               ; preds = %init_containers.exit
  switch i32 %1, label %39 [
    i32 52, label %33
    i32 43, label %33
    i32 34, label %33
    i32 10, label %33
  ]

33:                                               ; preds = %32, %32, %32, %32
  %34 = icmp eq i32 %2, 3
  %35 = icmp eq i32 %3, 3
  %or.cond7 = and i1 %34, %35
  br i1 %or.cond7, label %.thread.thread, label %36

36:                                               ; preds = %33
  %37 = icmp eq i32 %2, 4
  %38 = icmp eq i32 %3, 2
  %or.cond9 = and i1 %37, %38
  br i1 %or.cond9, label %.thread.thread, label %.thread

39:                                               ; preds = %32
  %40 = icmp eq i32 %1, 29
  %41 = icmp eq i32 %2, 4
  %or.cond11 = and i1 %40, %41
  %42 = icmp eq i32 %3, 0
  %or.cond13 = and i1 %or.cond11, %42
  br i1 %or.cond13, label %.thread.thread, label %43

43:                                               ; preds = %39, %init_containers.exit
  %44 = icmp eq i32 %1, 59
  br i1 %44, label %.thread44, label %.thread

.thread44:                                        ; preds = %43
  %45 = call fastcc ptr @get_style(i32 noundef 59, ptr noundef nonnull @.str.292)
  br label %54

.thread.thread:                                   ; preds = %39, %36, %33
  %.03942.ph = phi i32 [ 28, %39 ], [ 51, %36 ], [ 51, %33 ]
  %46 = call fastcc ptr @gtk3_get_widget(i32 noundef %.03942.ph)
  store ptr %46, ptr @gtk3_widget, align 8
  %47 = load ptr, ptr @fp_gtk_widget_get_style_context, align 8
  %48 = call ptr %47(ptr noundef %46) #19
  br label %54

.thread:                                          ; preds = %36, %43
  %49 = call fastcc ptr @gtk3_get_widget(i32 noundef %1)
  store ptr %49, ptr @gtk3_widget, align 8
  %50 = load ptr, ptr @fp_gtk_widget_get_style_context, align 8
  %51 = call ptr %50(ptr noundef %49) #19
  switch i32 %1, label %54 [
    i32 38, label %52
    i32 2, label %52
  ]

52:                                               ; preds = %.thread, %.thread
  %53 = and i32 %.0.i, 44
  br label %54

54:                                               ; preds = %.thread.thread, %.thread44, %.thread, %52
  %.047 = phi ptr [ %51, %52 ], [ %51, %.thread ], [ %45, %.thread44 ], [ %48, %.thread.thread ]
  %55 = phi i1 [ false, %52 ], [ false, %.thread ], [ true, %.thread44 ], [ false, %.thread.thread ]
  %.038 = phi i32 [ %53, %52 ], [ %.0.i, %.thread ], [ %.0.i, %.thread44 ], [ %.0.i, %.thread.thread ]
  call fastcc void @gtk3_get_color_for_flags(ptr dead_on_unwind noalias nonnull writable align 8 %6, ptr noundef %.047, i32 noundef %.038, i32 noundef %3)
  %56 = getelementptr inbounds i8, ptr %6, i64 24
  %57 = load double, ptr %56, align 8
  %58 = fmul double %57, 6.553500e+04
  %59 = fptoui double %58 to i16
  %60 = icmp ult i16 %59, 256
  br i1 %60, label %61, label %73

61:                                               ; preds = %54
  %62 = load ptr, ptr @fp_gtk_widget_get_style_context, align 8
  %63 = load ptr, ptr getelementptr inbounds (i8, ptr @gtk3_widgets, i64 320), align 16
  %64 = icmp eq ptr %63, null
  br i1 %64, label %65, label %gtk3_get_widget.exit

65:                                               ; preds = %61
  %66 = load ptr, ptr @fp_gtk_window_new, align 8
  %67 = call ptr %66(i32 noundef 0) #19
  store ptr %67, ptr getelementptr inbounds (i8, ptr @gtk3_widgets, i64 320), align 16
  %.not = icmp eq ptr %67, null
  br i1 %.not, label %gtk3_get_widget.exit, label %68

68:                                               ; preds = %65
  %69 = load ptr, ptr @fp_gtk_widget_realize, align 8
  call void %69(ptr noundef nonnull %67) #19
  br label %gtk3_get_widget.exit

gtk3_get_widget.exit:                             ; preds = %61, %65, %68
  %.04857.i = phi ptr [ %67, %68 ], [ null, %65 ], [ %63, %61 ]
  %70 = call ptr %62(ptr noundef %.04857.i) #19
  call void @llvm.experimental.noalias.scope.decl(metadata !11)
  %71 = getelementptr inbounds i8, ptr %7, i64 24
  store double 1.000000e+00, ptr %71, align 8, !alias.scope !11
  %72 = load ptr, ptr @fp_gtk_style_context_get_background_color, align 8, !noalias !11
  call void %72(ptr noundef %70, i32 noundef 0, ptr noundef nonnull %7) #19
  call void @llvm.memcpy.p0.p0.i64(ptr noundef nonnull align 8 dereferenceable(32) %6, ptr noundef nonnull align 8 dereferenceable(32) %7, i64 32, i1 false)
  %.pre = load double, ptr %56, align 8
  br label %73

73:                                               ; preds = %gtk3_get_widget.exit, %54
  %74 = phi double [ %.pre, %gtk3_get_widget.exit ], [ %57, %54 ]
  %75 = load double, ptr %6, align 8
  %76 = getelementptr inbounds i8, ptr %6, i64 8
  %77 = load double, ptr %76, align 8
  %78 = getelementptr inbounds i8, ptr %6, i64 16
  %79 = load double, ptr %78, align 8
  br i1 %55, label %80, label %82

80:                                               ; preds = %73
  %.b.i = load i1, ptr @gtk3_version_3_20, align 4
  %fp_g_object_unref.val.i = load ptr, ptr @fp_g_object_unref, align 8
  %fp_gtk_style_context_restore.val.i = load ptr, ptr @fp_gtk_style_context_restore, align 8
  %81 = select i1 %.b.i, ptr %fp_g_object_unref.val.i, ptr %fp_gtk_style_context_restore.val.i
  call void %81(ptr noundef %.047) #19
  br label %82

82:                                               ; preds = %80, %73
  %83 = fmul double %79, 6.553500e+04
  %84 = fptoui double %83 to i16
  %85 = lshr i16 %84, 8
  %86 = zext nneg i16 %85 to i32
  %87 = fmul double %77, 6.553500e+04
  %88 = fptoui double %87 to i16
  %89 = and i16 %88, -256
  %90 = fmul double %75, 6.553500e+04
  %91 = fptoui double %90 to i16
  %92 = lshr i16 %91, 8
  %93 = zext nneg i16 %92 to i32
  %94 = fmul double %74, 6.553500e+04
  %95 = fptoui double %94 to i16
  %96 = lshr i16 %95, 8
  %97 = zext nneg i16 %96 to i32
  %98 = shl nuw i32 %97, 24
  %99 = shl nuw nsw i32 %93, 16
  %100 = or disjoint i32 %99, %98
  %101 = zext i16 %89 to i32
  %102 = or disjoint i32 %100, %101
  %103 = or disjoint i32 %102, %86
  ret i32 %103
}